; Function Attrs: nounwind uwtable
define ptr @Gla_ManRefinement(ptr noundef captures(none) %0) local_unnamed_addr #0 {
  %2 = alloca ptr, align 8
  %3 = alloca ptr, align 8
  call void @llvm.lifetime.start.p0(i64 8, ptr nonnull %2) #29
  call void @llvm.lifetime.start.p0(i64 8, ptr nonnull %3) #29
  call void @Gia_GlaPrepareCexAndMap(ptr noundef %0, ptr noundef nonnull %2, ptr noundef nonnull %3)
  %4 = getelementptr inbounds nuw i8, ptr %0, i64 160
  %5 = load ptr, ptr %4, align 8, !tbaa !110
  %6 = load ptr, ptr %2, align 8, !tbaa !70
  %7 = load ptr, ptr %3, align 8, !tbaa !69
  %8 = getelementptr inbounds nuw i8, ptr %0, i64 16
  %9 = load ptr, ptr %8, align 8, !tbaa !30
  %10 = getelementptr inbounds nuw i8, ptr %9, i64 56
  %11 = load i32, ptr %10, align 8, !tbaa !92
  %12 = getelementptr inbounds nuw i8, ptr %9, i64 64
  %13 = load i32, ptr %12, align 8, !tbaa !111
  %14 = tail call ptr @Rnm_ManRefine(ptr noundef %5, ptr noundef %6, ptr noundef %7, i32 noundef %11, i32 noundef %13, i32 noundef 1) #29
  tail call void @Abc_CexFree(ptr noundef %6) #29
  %15 = getelementptr i8, ptr %14, i64 4
  %.val26 = load i32, ptr %15, align 4, !tbaa !3
  %16 = icmp eq i32 %.val26, 0
  br i1 %16, label %17, label %30

17:                                               ; preds = %1
  %18 = getelementptr inbounds nuw i8, ptr %14, i64 8
  %19 = load ptr, ptr %18, align 8, !tbaa !11
  %.not.i = icmp eq ptr %19, null
  br i1 %.not.i, label %Vec_IntFree.exit, label %20

20:                                               ; preds = %17
  tail call void @free(ptr noundef nonnull %19) #29
  br label %Vec_IntFree.exit

Vec_IntFree.exit:                                 ; preds = %17, %20
  tail call void @free(ptr noundef nonnull %14) #29
  %21 = getelementptr inbounds nuw i8, ptr %0, i64 8
  %22 = load ptr, ptr %21, align 8, !tbaa !36
  %23 = getelementptr inbounds nuw i8, ptr %22, i64 376
  tail call void @Abc_CexFreeP(ptr noundef nonnull %23) #29
  %24 = tail call ptr @Gla_ManDeriveCex(ptr noundef nonnull %0, ptr noundef %7)
  %25 = load ptr, ptr %21, align 8, !tbaa !36
  %26 = getelementptr inbounds nuw i8, ptr %25, i64 376
  store ptr %24, ptr %26, align 8, !tbaa !112
  %27 = getelementptr inbounds nuw i8, ptr %7, i64 8
  %28 = load ptr, ptr %27, align 8, !tbaa !11
  %.not.i31 = icmp eq ptr %28, null
  br i1 %.not.i31, label %Vec_IntFree.exit32, label %29

29:                                               ; preds = %Vec_IntFree.exit
  tail call void @free(ptr noundef nonnull %28) #29
  br label %Vec_IntFree.exit32

Vec_IntFree.exit32:                               ; preds = %Vec_IntFree.exit, %29
  tail call void @free(ptr noundef nonnull %7) #29
  br label %52

30:                                               ; preds = %1
  %31 = getelementptr inbounds nuw i8, ptr %7, i64 8
  %32 = load ptr, ptr %31, align 8, !tbaa !11
  %.not.i33 = icmp eq ptr %32, null
  br i1 %.not.i33, label %Vec_IntFree.exit34, label %33

33:                                               ; preds = %30
  tail call void @free(ptr noundef nonnull %32) #29
  br label %Vec_IntFree.exit34

Vec_IntFree.exit34:                               ; preds = %30, %33
  tail call void @free(ptr noundef nonnull %7) #29
  %.val2535 = load i32, ptr %15, align 4, !tbaa !3
  %34 = icmp sgt i32 %.val2535, 0
  br i1 %34, label %.lr.ph, label %.critedge

.lr.ph:                                           ; preds = %Vec_IntFree.exit34
  %35 = getelementptr inbounds nuw i8, ptr %0, i64 8
  %36 = load ptr, ptr %35, align 8, !tbaa !36
  %37 = getelementptr i8, ptr %36, i64 32
  %.val28 = load ptr, ptr %37, align 8, !tbaa !37
  %.not = icmp eq ptr %.val28, null
  br i1 %.not, label %.critedge, label %.lr.ph.split

.lr.ph.split:                                     ; preds = %.lr.ph
  %38 = getelementptr inbounds nuw i8, ptr %0, i64 48
  %39 = getelementptr i8, ptr %14, i64 8
  %.val27 = load ptr, ptr %39, align 8, !tbaa !11
  %40 = load ptr, ptr %38, align 8, !tbaa !52
  br label %41

41:                                               ; preds = %.lr.ph.split, %41
  %indvars.iv = phi i64 [ 0, %.lr.ph.split ], [ %indvars.iv.next, %41 ]
  %42 = getelementptr inbounds nuw i32, ptr %.val27, i64 %indvars.iv
  %43 = load i32, ptr %42, align 4, !tbaa !22
  %44 = sext i32 %43 to i64
  %45 = getelementptr inbounds i32, ptr %40, i64 %44
  %46 = load i32, ptr %45, align 4, !tbaa !22
  store i32 %46, ptr %42, align 4, !tbaa !22
  %indvars.iv.next = add nuw nsw i64 %indvars.iv, 1
  %.val25 = load i32, ptr %15, align 4, !tbaa !3
  %47 = sext i32 %.val25 to i64
  %48 = icmp slt i64 %indvars.iv.next, %47
  br i1 %48, label %41, label %.critedge, !llvm.loop !113

.critedge:                                        ; preds = %41, %.lr.ph, %Vec_IntFree.exit34
  %.val25.lcssa = phi i32 [ %.val2535, %Vec_IntFree.exit34 ], [ %.val2535, %.lr.ph ], [ %.val25, %41 ]
  %49 = getelementptr inbounds nuw i8, ptr %0, i64 68
  %50 = load i32, ptr %49, align 4, !tbaa !114
  %51 = add nsw i32 %50, %.val25.lcssa
  store i32 %51, ptr %49, align 4, !tbaa !114
  br label %52

52:                                               ; preds = %.critedge, %Vec_IntFree.exit32
  %.023 = phi ptr [ null, %Vec_IntFree.exit32 ], [ %14, %.critedge ]
  call void @llvm.lifetime.end.p0(i64 8, ptr nonnull %3) #29
  call void @llvm.lifetime.end.p0(i64 8, ptr nonnull %2) #29
  ret ptr %.023
}